; ModuleID = '54/1041.c'
source_filename = "54/1041.c"
target datalayout = "e-m:e-p270:32:32-p271:32:32-p272:64:64-i64:64-f80:128-n8:16:32:64-S128"
target triple = "x86_64-pc-linux-gnu"

@.str = private unnamed_addr constant [6 x i8] c"%d %d\00", align 1
@.str.1 = private unnamed_addr constant [3 x i8] c"%d\00", align 1

; Function Attrs: noinline nounwind uwtable
define dso_local i32 @main() #0 {
  %1 = alloca i32, align 4
  %2 = alloca i32, align 4
  %3 = alloca i32, align 4
  %4 = alloca i32, align 4
  store i32 0, i32* %1, align 4
  %5 = call i32 (i8*, ...) @__isoc99_scanf(i8* getelementptr inbounds ([6 x i8], [6 x i8]* @.str, i64 0, i64 0), i32* %2, i32* %3)
  %6 = load i32, i32* %2, align 4
  %7 = load i32, i32* %3, align 4
  %8 = add nsw i32 %6, %7
  store i32 %8, i32* %4, align 4
  br label %9

9:                                                ; preds = %17, %0
  %10 = load i32, i32* %2, align 4
  %11 = load i32, i32* %3, align 4
  %12 = load i32, i32* %4, align 4
  %13 = call i32 @chek(i32 %10, i32 %11, i32 %12)
  %14 = icmp eq i32 %13, 1
  br i1 %14, label %15, label %16

15:                                               ; preds = %9
  br label %20

16:                                               ; preds = %9
  br label %17

17:                                               ; preds = %16
  %18 = load i32, i32* %4, align 4
  %19 = add nsw i32 %18, 1
  store i32 %19, i32* %4, align 4
  br label %9

20:                                               ; preds = %15
  %21 = load i32, i32* %4, align 4
  %22 = call i32 (i8*, ...) @printf(i8* getelementptr inbounds ([3 x i8], [3 x i8]* @.str.1, i64 0, i64 0), i32 %21)
  ret i32 0
}

declare dso_local i32 @__isoc99_scanf(i8*, ...) #1

; Function Attrs: noinline nounwind uwtable
define dso_local i32 @chek(i32 %0, i32 %1, i32 %2) #0 {
  %4 = alloca i32, align 4
  %5 = alloca i32, align 4
  %6 = alloca i32, align 4
  %7 = alloca i32, align 4
  %8 = alloca i32, align 4
  %9 = alloca i32, align 4
  store i32 %0, i32* %5, align 4
  store i32 %1, i32* %6, align 4
  store i32 %2, i32* %7, align 4
  store i32 1, i32* %8, align 4
  store i32 0, i32* %9, align 4
  br label %10

10:                                               ; preds = %25, %3
  %11 = load i32, i32* %7, align 4
  %12 = load i32, i32* %5, align 4
  %13 = srem i32 %11, %12
  %14 = load i32, i32* %6, align 4
  %15 = icmp eq i32 %13, %14
  br i1 %15, label %16, label %23

16:                                               ; preds = %10
  %17 = load i32, i32* %7, align 4
  %18 = load i32, i32* %5, align 4
  %19 = icmp sgt i32 %17, %18
  br i1 %19, label %20, label %23

20:                                               ; preds = %16
  %21 = load i32, i32* %8, align 4
  %22 = icmp sge i32 %21, 1
  br label %23

23:                                               ; preds = %20, %16, %10
  %24 = phi i1 [ false, %16 ], [ false, %10 ], [ %22, %20 ]
  br i1 %24, label %25, label %38

25:                                               ; preds = %23
  %26 = load i32, i32* %7, align 4
  %27 = load i32, i32* %6, align 4
  %28 = sub nsw i32 %26, %27
  %29 = load i32, i32* %5, align 4
  %30 = sdiv i32 %28, %29
  store i32 %30, i32* %8, align 4
  %31 = load i32, i32* %7, align 4
  %32 = load i32, i32* %6, align 4
  %33 = sub nsw i32 %31, %32
  %34 = load i32, i32* %8, align 4
  %35 = sub nsw i32 %33, %34
  store i32 %35, i32* %7, align 4
  %36 = load i32, i32* %9, align 4
  %37 = add nsw i32 %36, 1
  store i32 %37, i32* %9, align 4
  br label %10

38:                                               ; preds = %23
  %39 = load i32, i32* %9, align 4
  %40 = load i32, i32* %5, align 4
  %41 = icmp eq i32 %39, %40
  br i1 %41, label %42, label %43

42:                                               ; preds = %38
  store i32 1, i32* %4, align 4
  br label %44

43:                                               ; preds = %38
  store i32 0, i32* %4, align 4
  br label %44

44:                                               ; preds = %43, %42
  %45 = load i32, i32* %4, align 4
  ret i32 %45
}

declare dso_local i32 @printf(i8*, ...) #1


!llvm.module.flags = !{!0}
!llvm.ident = !{!1}

!0 = !{i32 1, !"wchar_size", i32 4}
!1 = !{!"clang version 10.0.0-4ubuntu1 "}
